target datalayout = "e-m:e-p270:32:32-p271:32:32-p272:64:64-i64:64-i128:128-f80:128-n8:16:32:64-S128"
target triple = "x86_64-unknown-linux-gnu"

%struct.QemuMutex = type { %union.pthread_mutex_t, i8 }
%union.pthread_mutex_t = type { %struct.__pthread_mutex_s }
%struct.__pthread_mutex_s = type { i32, i32, i32, i32, i32, i16, i16, %struct.__pthread_internal_list }
%struct.__pthread_internal_list = type { ptr, ptr }
%struct.anon.21 = type { ptr }
%struct.BounceBuffer = type { ptr, ptr, i64, i64, i8 }
%struct.MapClient = type { ptr, %struct.anon.20 }
%struct.anon.20 = type { ptr, ptr }

@.str.1 = private unnamed_addr constant [25 x i8] c"../qemu/system/physmem.c\00", align 1
@qemu_mutex_lock_func = external global ptr, align 8
@__func__.cpu_register_map_client = private unnamed_addr constant [24 x i8] c"cpu_register_map_client\00", align 1
@map_client_list_lock = dso_local global %struct.QemuMutex zeroinitializer, align 8
@map_client_list = internal global %struct.anon.21 zeroinitializer, align 8
@bounce = internal global %struct.BounceBuffer zeroinitializer, align 8

; Function Attrs: nounwind sspstrong uwtable
define internal void @cpu_unregister_map_client_do(ptr noundef %client) #0 {
entry:
  %client.addr = alloca ptr, align 8
  store ptr %client, ptr %client.addr, align 8
  br label %do.body

do.body:                                          ; preds = %entry
  %0 = load ptr, ptr %client.addr, align 8
  %link = getelementptr inbounds %struct.MapClient, ptr %0, i32 0, i32 1
  %le_next = getelementptr inbounds %struct.anon.20, ptr %link, i32 0, i32 0
  %1 = load ptr, ptr %le_next, align 8
  %cmp = icmp ne ptr %1, null
  br i1 %cmp, label %if.then, label %if.end

if.then:                                          ; preds = %do.body
  %2 = load ptr, ptr %client.addr, align 8
  %link1 = getelementptr inbounds %struct.MapClient, ptr %2, i32 0, i32 1
  %le_prev = getelementptr inbounds %struct.anon.20, ptr %link1, i32 0, i32 1
  %3 = load ptr, ptr %le_prev, align 8
  %4 = load ptr, ptr %client.addr, align 8
  %link2 = getelementptr inbounds %struct.MapClient, ptr %4, i32 0, i32 1
  %le_next3 = getelementptr inbounds %struct.anon.20, ptr %link2, i32 0, i32 0
  %5 = load ptr, ptr %le_next3, align 8
  %link4 = getelementptr inbounds %struct.MapClient, ptr %5, i32 0, i32 1
  %le_prev5 = getelementptr inbounds %struct.anon.20, ptr %link4, i32 0, i32 1
  store ptr %3, ptr %le_prev5, align 8
  br label %if.end

if.end:                                           ; preds = %if.then, %do.body
  %6 = load ptr, ptr %client.addr, align 8
  %link6 = getelementptr inbounds %struct.MapClient, ptr %6, i32 0, i32 1
  %le_next7 = getelementptr inbounds %struct.anon.20, ptr %link6, i32 0, i32 0
  %7 = load ptr, ptr %le_next7, align 8
  %8 = load ptr, ptr %client.addr, align 8
  %link8 = getelementptr inbounds %struct.MapClient, ptr %8, i32 0, i32 1
  %le_prev9 = getelementptr inbounds %struct.anon.20, ptr %link8, i32 0, i32 1
  %9 = load ptr, ptr %le_prev9, align 8
  store ptr %7, ptr %9, align 8
  %10 = load ptr, ptr %client.addr, align 8
  %link10 = getelementptr inbounds %struct.MapClient, ptr %10, i32 0, i32 1
  %le_next11 = getelementptr inbounds %struct.anon.20, ptr %link10, i32 0, i32 0
  store ptr null, ptr %le_next11, align 8
  %11 = load ptr, ptr %client.addr, align 8
  %link12 = getelementptr inbounds %struct.MapClient, ptr %11, i32 0, i32 1
  %le_prev13 = getelementptr inbounds %struct.anon.20, ptr %link12, i32 0, i32 1
  store ptr null, ptr %le_prev13, align 8
  br label %do.end

do.end:                                           ; preds = %if.end
  %12 = load ptr, ptr %client.addr, align 8
  call void @g_free(ptr noundef %12)
  ret void
}

; Function Attrs: nounwind sspstrong uwtable
define internal void @cpu_notify_map_clients_locked() #0 {
entry:
  %client = alloca ptr, align 8
  br label %while.cond

while.cond:                                       ; preds = %while.body, %entry
  %0 = load ptr, ptr @map_client_list, align 8
  %cmp = icmp eq ptr %0, null
  %lnot = xor i1 %cmp, true
  br i1 %lnot, label %while.body, label %while.end

while.body:                                       ; preds = %while.cond
  %1 = load ptr, ptr @map_client_list, align 8
  store ptr %1, ptr %client, align 8
  %2 = load ptr, ptr %client, align 8
  %bh = getelementptr inbounds %struct.MapClient, ptr %2, i32 0, i32 0
  %3 = load ptr, ptr %bh, align 8
  call void @qemu_bh_schedule(ptr noundef %3)
  %4 = load ptr, ptr %client, align 8
  call void @cpu_unregister_map_client_do(ptr noundef %4)
  br label %while.cond, !llvm.loop !57

while.end:                                        ; preds = %while.cond
  ret void
}

; Function Attrs: nounwind sspstrong uwtable
define dso_local void @cpu_register_map_client(ptr noundef %bh) #0 {
entry:
  %bh.addr = alloca ptr, align 8
  %client = alloca ptr, align 8
  %_f = alloca ptr, align 8
  %tmp = alloca ptr, align 8
  %atomic-temp = alloca ptr, align 8
  %tmp14 = alloca i8, align 1
  %atomic-temp15 = alloca i8, align 1
  store ptr %bh, ptr %bh.addr, align 8
  %call = call noalias ptr @g_malloc(i64 noundef 24) #17
  store ptr %call, ptr %client, align 8
  br label %while.cond

while.cond:                                       ; preds = %do.end, %entry
  br i1 false, label %while.body, label %while.end

while.body:                                       ; preds = %while.cond
  br label %do.body

do.body:                                          ; preds = %while.body
  call void @g_assertion_message_expr(ptr noundef null, ptr noundef @.str.1, i32 noundef 3017, ptr noundef @__func__.cpu_register_map_client, ptr noundef null) #14
  unreachable

do.end:                                           ; No predecessors!
  br label %while.cond

while.end:                                        ; preds = %while.cond
  %0 = load atomic i64, ptr @qemu_mutex_lock_func monotonic, align 8
  store i64 %0, ptr %atomic-temp, align 8
  %1 = load ptr, ptr %atomic-temp, align 8
  store ptr %1, ptr %tmp, align 8
  %2 = load ptr, ptr %tmp, align 8
  store ptr %2, ptr %_f, align 8
  %3 = load ptr, ptr %_f, align 8
  call void %3(ptr noundef @map_client_list_lock, ptr noundef @.str.1, i32 noundef 3017)
  %4 = load ptr, ptr %bh.addr, align 8
  %5 = load ptr, ptr %client, align 8
  %bh1 = getelementptr inbounds %struct.MapClient, ptr %5, i32 0, i32 0
  store ptr %4, ptr %bh1, align 8
  br label %do.body2

do.body2:                                         ; preds = %while.end
  %6 = load ptr, ptr @map_client_list, align 8
  %7 = load ptr, ptr %client, align 8
  %link = getelementptr inbounds %struct.MapClient, ptr %7, i32 0, i32 1
  %le_next = getelementptr inbounds %struct.anon.20, ptr %link, i32 0, i32 0
  store ptr %6, ptr %le_next, align 8
  %cmp = icmp ne ptr %6, null
  br i1 %cmp, label %if.then, label %if.end

if.then:                                          ; preds = %do.body2
  %8 = load ptr, ptr %client, align 8
  %link3 = getelementptr inbounds %struct.MapClient, ptr %8, i32 0, i32 1
  %le_next4 = getelementptr inbounds %struct.anon.20, ptr %link3, i32 0, i32 0
  %9 = load ptr, ptr @map_client_list, align 8
  %link5 = getelementptr inbounds %struct.MapClient, ptr %9, i32 0, i32 1
  %le_prev = getelementptr inbounds %struct.anon.20, ptr %link5, i32 0, i32 1
  store ptr %le_next4, ptr %le_prev, align 8
  br label %if.end

if.end:                                           ; preds = %if.then, %do.body2
  %10 = load ptr, ptr %client, align 8
  store ptr %10, ptr @map_client_list, align 8
  %11 = load ptr, ptr %client, align 8
  %link6 = getelementptr inbounds %struct.MapClient, ptr %11, i32 0, i32 1
  %le_prev7 = getelementptr inbounds %struct.anon.20, ptr %link6, i32 0, i32 1
  store ptr @map_client_list, ptr %le_prev7, align 8
  br label %do.end8

do.end8:                                          ; preds = %if.end
  call void asm sideeffect "", "~{memory},~{dirflag},~{fpsr},~{flags}"() #15, !srcloc !56
  fence seq_cst
  br label %while.cond9

while.cond9:                                      ; preds = %do.end12, %do.end8
  br i1 false, label %while.body10, label %while.end13

while.body10:                                     ; preds = %while.cond9
  br label %do.body11

do.body11:                                        ; preds = %while.body10
  call void @g_assertion_message_expr(ptr noundef null, ptr noundef @.str.1, i32 noundef 3022, ptr noundef @__func__.cpu_register_map_client, ptr noundef null) #14
  unreachable

do.end12:                                         ; No predecessors!
  br label %while.cond9

while.end13:                                      ; preds = %while.cond9
  %12 = getelementptr inbounds %struct.BounceBuffer, ptr @bounce, i32 0, i32 4
  %13 = load atomic i8, ptr %12 monotonic, align 8
  store i8 %13, ptr %atomic-temp15, align 1
  %14 = load i8, ptr %atomic-temp15, align 1
  %tobool = trunc i8 %14 to i1
  %frombool = zext i1 %tobool to i8
  store i8 %frombool, ptr %tmp14, align 1
  %15 = load i8, ptr %tmp14, align 1
  %tobool16 = trunc i8 %15 to i1
  br i1 %tobool16, label %if.end18, label %if.then17

if.then17:                                        ; preds = %while.end13
  call void @cpu_notify_map_clients_locked()
  br label %if.end18

if.end18:                                         ; preds = %if.then17, %while.end13
  call void @qemu_mutex_unlock_impl(ptr noundef @map_client_list_lock, ptr noundef @.str.1, i32 noundef 3025)
  ret void
}