; Function Attrs: nounwind sspstrong uwtable
define dso_local void @cpu_register_map_client(ptr noundef %bh) local_unnamed_addr #0 {
entry:
  %call = tail call noalias dereferenceable_or_null(24) ptr @g_malloc(i64 noundef 24) #31
  %0 = load atomic i64, ptr @qemu_mutex_lock_func monotonic, align 8
  %1 = inttoptr i64 %0 to ptr
  tail call void %1(ptr noundef nonnull @map_client_list_lock, ptr noundef nonnull @.str.1, i32 noundef 3017) #28
  store ptr %bh, ptr %call, align 8
  %2 = load ptr, ptr @map_client_list, align 8
  %link = getelementptr inbounds nuw i8, ptr %call, i64 8
  store ptr %2, ptr %link, align 8
  %cmp.not = icmp eq ptr %2, null
  br i1 %cmp.not, label %if.end, label %if.then

if.then:                                          ; preds = %entry
  %le_prev = getelementptr inbounds nuw i8, ptr %2, i64 16
  store ptr %link, ptr %le_prev, align 8
  br label %if.end

if.end:                                           ; preds = %if.then, %entry
  store ptr %call, ptr @map_client_list, align 8
  %le_prev7 = getelementptr inbounds nuw i8, ptr %call, i64 16
  store ptr @map_client_list, ptr %le_prev7, align 8
  tail call void asm sideeffect "", "~{memory},~{dirflag},~{fpsr},~{flags}"() #28, !srcloc !73
  fence seq_cst
  %3 = load atomic i8, ptr getelementptr inbounds nuw (i8, ptr @bounce, i64 32) monotonic, align 8
  %tobool = trunc i8 %3 to i1
  %4 = load ptr, ptr @map_client_list, align 8
  %cmp.not2.i = icmp eq ptr %4, null
  %or.cond = select i1 %tobool, i1 true, i1 %cmp.not2.i
  br i1 %or.cond, label %if.end18, label %while.body.i

while.body.i:                                     ; preds = %if.end, %cpu_unregister_map_client_do.exit.i
  %5 = phi ptr [ %9, %cpu_unregister_map_client_do.exit.i ], [ %4, %if.end ]
  %6 = load ptr, ptr %5, align 8
  tail call void @qemu_bh_schedule(ptr noundef %6) #28
  %link.i.i = getelementptr inbounds nuw i8, ptr %5, i64 8
  %7 = load ptr, ptr %link.i.i, align 8
  %cmp.not.i.i = icmp eq ptr %7, null
  %le_prev9.phi.trans.insert.i.i = getelementptr inbounds nuw i8, ptr %5, i64 16
  %.pre8.i.i = load ptr, ptr %le_prev9.phi.trans.insert.i.i, align 8
  br i1 %cmp.not.i.i, label %cpu_unregister_map_client_do.exit.i, label %if.then.i.i

if.then.i.i:                                      ; preds = %while.body.i
  %le_prev5.i.i = getelementptr inbounds nuw i8, ptr %7, i64 16
  store ptr %.pre8.i.i, ptr %le_prev5.i.i, align 8
  %.pre.i.i = load ptr, ptr %link.i.i, align 8
  br label %cpu_unregister_map_client_do.exit.i

cpu_unregister_map_client_do.exit.i:              ; preds = %if.then.i.i, %while.body.i
  %8 = phi ptr [ %.pre.i.i, %if.then.i.i ], [ null, %while.body.i ]
  store ptr %8, ptr %.pre8.i.i, align 8
  tail call void @llvm.memset.p0.i64(ptr noundef nonnull align 8 dereferenceable(16) %link.i.i, i8 0, i64 16, i1 false)
  tail call void @g_free(ptr noundef nonnull %5) #28
  %9 = load ptr, ptr @map_client_list, align 8
  %cmp.not.i = icmp eq ptr %9, null
  br i1 %cmp.not.i, label %if.end18, label %while.body.i, !llvm.loop !74

if.end18:                                         ; preds = %cpu_unregister_map_client_do.exit.i, %if.end
  tail call void @qemu_mutex_unlock_impl(ptr noundef nonnull @map_client_list_lock, ptr noundef nonnull @.str.1, i32 noundef 3025) #28
  ret void
}